; Function Attrs: null_pointer_is_valid sspstrong uwtable
define hidden signext i8 @recent_get_column_xalign(i32 noundef %0) local_unnamed_addr #0 {
  %2 = load ptr, ptr getelementptr inbounds nuw (i8, ptr @recent, i64 136), align 8
  %3 = tail call ptr @g_list_nth_data(ptr noundef %2, i32 noundef %0)
  %.not = icmp eq ptr %3, null
  br i1 %.not, label %7, label %4

4:                                                ; preds = %1
  %5 = getelementptr inbounds nuw i8, ptr %3, i64 4
  %6 = load i8, ptr %5, align 4
  br label %.loopexit

7:                                                ; preds = %1
  %8 = load ptr, ptr getelementptr inbounds nuw (i8, ptr @recent, i64 136), align 8
  %9 = tail call i32 @g_list_length(ptr noundef %8)
  %10 = load ptr, ptr @prefs, align 8
  %11 = tail call i32 @g_list_length(ptr noundef %10)
  %12 = icmp ult i32 %9, %11
  br i1 %12, label %.lr.ph, label %.loopexit

.lr.ph:                                           ; preds = %7, %.lr.ph
  %.08 = phi i32 [ %17, %.lr.ph ], [ %9, %7 ]
  %13 = tail call noalias dereferenceable_or_null(8) ptr @g_malloc(i64 noundef 8) #12
  store i32 -1, ptr %13, align 4
  %14 = getelementptr inbounds nuw i8, ptr %13, i64 4
  store i8 0, ptr %14, align 4
  %15 = load ptr, ptr getelementptr inbounds nuw (i8, ptr @recent, i64 136), align 8
  %16 = tail call ptr @g_list_insert(ptr noundef %15, ptr noundef %13, i32 noundef %.08)
  store ptr %16, ptr getelementptr inbounds nuw (i8, ptr @recent, i64 136), align 8
  %17 = add nuw i32 %.08, 1
  %18 = load ptr, ptr @prefs, align 8
  %19 = tail call i32 @g_list_length(ptr noundef %18)
  %20 = icmp ult i32 %17, %19
  br i1 %20, label %.lr.ph, label %.loopexit, !llvm.loop !19

.loopexit:                                        ; preds = %.lr.ph, %7, %4
  %.06 = phi i8 [ %6, %4 ], [ 0, %7 ], [ 0, %.lr.ph ]
  ret i8 %.06
}